; Function Attrs: nounwind uwtable
define range(i32 -1, 1) i32 @H5AC_move_entry(ptr noundef readonly captures(none) %0, ptr noundef %1, i64 noundef %2, i64 noundef %3) local_unnamed_addr #4 {
  %5 = load i8, ptr @H5AC_init_g, align 1, !tbaa !3, !range !7, !noundef !8
  %6 = trunc nuw i8 %5 to i1
  %7 = load i8, ptr @H5_libterm_g, align 1, !range !7
  %8 = trunc nuw i8 %7 to i1
  %9 = select i1 %6, i1 true, i1 %8
  br i1 %9, label %10, label %.thread, !prof !9

.thread:                                          ; preds = %4
  store i8 1, ptr @H5AC_init_g, align 1, !tbaa !3
  br label %13

10:                                               ; preds = %4
  %11 = xor i1 %8, true
  %12 = select i1 %6, i1 true, i1 %11
  br i1 %12, label %13, label %41, !prof !41

13:                                               ; preds = %.thread, %10
  %14 = getelementptr inbounds nuw i8, ptr %0, i64 16
  %15 = load ptr, ptr %14, align 8, !tbaa !11
  %16 = getelementptr inbounds nuw i8, ptr %15, i64 112
  %17 = load ptr, ptr %16, align 8, !tbaa !20
  %18 = tail call i32 @H5C_move_entry(ptr noundef %17, ptr noundef %1, i64 noundef %2, i64 noundef %3) #8
  %19 = icmp slt i32 %18, 0
  br i1 %19, label %20, label %24

20:                                               ; preds = %13
  %21 = load i64, ptr @H5E_CACHE_g, align 8, !tbaa !42
  %22 = load i64, ptr @H5E_CANTMOVE_g, align 8, !tbaa !42
  %23 = tail call i32 (ptr, ptr, i32, i64, i64, ptr, ...) @H5E_printf_stack(ptr noundef nonnull @.str, ptr noundef nonnull @__func__.H5AC_move_entry, i32 noundef 1032, i64 noundef %21, i64 noundef %22, ptr noundef nonnull @.str.23) #8
  br label %24

24:                                               ; preds = %13, %20
  %.0 = phi i32 [ -1, %20 ], [ 0, %13 ]
  %25 = load ptr, ptr %14, align 8, !tbaa !11
  %26 = getelementptr inbounds nuw i8, ptr %25, i64 112
  %27 = load ptr, ptr %26, align 8, !tbaa !20
  %28 = getelementptr inbounds nuw i8, ptr %27, i64 8
  %29 = load ptr, ptr %28, align 8, !tbaa !52
  %30 = getelementptr inbounds nuw i8, ptr %29, i64 1
  %31 = load i8, ptr %30, align 1, !tbaa !60, !range !7, !noundef !8
  %32 = trunc nuw i8 %31 to i1
  br i1 %32, label %33, label %41

33:                                               ; preds = %24
  %34 = load i32, ptr %1, align 8, !tbaa !116
  %35 = tail call i32 @H5C_log_write_move_entry_msg(ptr noundef nonnull %27, i64 noundef %2, i64 noundef %3, i32 noundef %34, i32 noundef %.0) #8
  %36 = icmp slt i32 %35, 0
  br i1 %36, label %37, label %41

37:                                               ; preds = %33
  %38 = load i64, ptr @H5E_CACHE_g, align 8, !tbaa !42
  %39 = load i64, ptr @H5E_LOGGING_g, align 8, !tbaa !42
  %40 = tail call i32 (ptr, ptr, i32, i64, i64, ptr, ...) @H5E_printf_stack(ptr noundef nonnull @.str, ptr noundef nonnull @__func__.H5AC_move_entry, i32 noundef 1045, i64 noundef %38, i64 noundef %39, ptr noundef nonnull @.str.7) #8
  br label %41

41:                                               ; preds = %24, %37, %33, %10
  %.1 = phi i32 [ -1, %37 ], [ %.0, %33 ], [ %.0, %24 ], [ 0, %10 ]
  ret i32 %.1
}